target datalayout = "e-m:e-p270:32:32-p271:32:32-p272:64:64-i64:64-i128:128-f80:128-n8:16:32:64-S128"
target triple = "x86_64-pc-linux-gnu"

%struct.ssl_st = type { i32, ptr, ptr, ptr, %struct.CRYPTO_REF_COUNT, ptr, %struct.crypto_ex_data_st }
%struct.CRYPTO_REF_COUNT = type { i32 }
%struct.crypto_ex_data_st = type { ptr, ptr }
%struct.ssl_connection_st = type { %struct.ssl_st, ptr, i32, ptr, ptr, ptr, i32, ptr, i32, i32, i32, i32, %struct.OSSL_TIME, %struct.OSSL_TIME, %struct.ossl_statem_st, i32, ptr, ptr, i64, i64, i64, %struct.ossl_quic_tls_callbacks_st, ptr, ptr, %struct.anon, ptr, ptr, ptr, i32, ptr, %struct.ssl_dane_st, ptr, ptr, ptr, ptr, i32, [64 x i8], [64 x i8], [64 x i8], [64 x i8], [64 x i8], [64 x i8], [64 x i8], [64 x i8], [64 x i8], [64 x i8], [64 x i8], [64 x i8], ptr, [64 x i8], i64, i32, i64, [32 x i8], ptr, ptr, ptr, i64, ptr, [32 x i8], i64, i32, ptr, ptr, i32, i32, ptr, ptr, ptr, ptr, ptr, i64, ptr, ptr, i64, i32, i32, i32, i64, i32, i32, i64, i64, i64, %struct.anon.1, ptr, i32, ptr, ptr, ptr, i32, ptr, ptr, ptr, i32, i32, i32, i32, ptr, i64, i32, ptr, %struct.srp_ctx_st, ptr, %struct.record_layer_st, ptr, ptr, ptr, ptr, i64, i32, i32, i32, i64, i64, i64, ptr, ptr, ptr, ptr, ptr, i64, ptr, i64, ptr, i64 }
%struct.OSSL_TIME = type { i64 }
%struct.ossl_statem_st = type { i32, i32, i32, i32, i32, i32, i32, i32, i32, i32, i32, i32, i32, ptr, ptr, ptr, i8 }
%struct.ossl_quic_tls_callbacks_st = type { ptr, ptr, ptr, ptr, ptr, ptr }
%struct.anon = type { i64, [32 x i8], [32 x i8], ptr, ptr, i32, i32, i32, i32, [2 x i8], i32, i32, i32, i32, %struct.anon.0, [64 x i8], i64, [64 x i8], i64, i32, i32, ptr, i64, ptr, i64, i32, i8, i8, i16, ptr, i16 }
%struct.anon.0 = type { [128 x i8], i64, [128 x i8], i64, i64, i32, ptr, ptr, [4 x ptr], [4 x i16], i64, i32, ptr, i64, ptr, i64, ptr, ptr, ptr, i32, i64, ptr, i32, ptr, i64, ptr, i64, ptr, i64, ptr, ptr, ptr, ptr, i64, i64, ptr, ptr, i32, i32, i32, i32 }
%struct.ssl_dane_st = type { ptr, ptr, ptr, ptr, ptr, i32, i32, i32, i64 }
%struct.anon.1 = type { [29 x i8], ptr, ptr, ptr, i32, ptr, i16, i32, %struct.anon.2, i32, i32, i64, ptr, i64, ptr, i64, ptr, i64, ptr, i64, ptr, i64, ptr, ptr, ptr, ptr, ptr, ptr, ptr, i64, ptr, i64, i32, i32, i32, i32, ptr, i64, i32, i8, i32, [4 x i32], i32, i8, i8, i8, i8 }
%struct.anon.2 = type { ptr, ptr, ptr, i64 }
%struct.srp_ctx_st = type { ptr, ptr, ptr, ptr, ptr, ptr, ptr, ptr, ptr, ptr, ptr, ptr, ptr, ptr, i32, i64 }
%struct.record_layer_st = type { ptr, ptr, ptr, ptr, ptr, ptr, ptr, ptr, i64, i32, i64, [4 x i8], i64, i64, i8, ptr, i32, ptr, ptr, ptr, i64, i64, i64, i64, [32 x %struct.tls_record_st] }
%struct.tls_record_st = type { ptr, i32, i8, ptr, ptr, i64, i64, i16, [8 x i8] }
%struct.ssl_method_st = type { i32, i32, i64, ptr, ptr, ptr, ptr, ptr, ptr, ptr, ptr, ptr, ptr, ptr, ptr, ptr, ptr, ptr, ptr, ptr, ptr, ptr, ptr, ptr, ptr, ptr, ptr, ptr, ptr, ptr, ptr, ptr }
%struct.ssl3_enc_method = type { ptr, ptr, ptr, ptr, ptr, i64, ptr, i64, ptr, ptr, i32, ptr, ptr, ptr }
%struct.cert_st = type { ptr, ptr, ptr, i32, i32, ptr, i64, ptr, i64, ptr, i64, ptr, i64, ptr, ptr, ptr, ptr, %struct.custom_ext_methods, ptr, i32, ptr, ptr, %struct.CRYPTO_REF_COUNT }
%struct.custom_ext_methods = type { ptr, i64 }

; Function Attrs: nounwind uwtable
define i32 @ssl_version_cmp(ptr noundef %0, i32 noundef %1, i32 noundef %2) #0 {
  %4 = alloca i32, align 4
  %5 = alloca ptr, align 8
  %6 = alloca i32, align 4
  %7 = alloca i32, align 4
  %8 = alloca i32, align 4
  %9 = alloca i32, align 4
  store ptr %0, ptr %5, align 8, !tbaa !18
  store i32 %1, ptr %6, align 4, !tbaa !85
  store i32 %2, ptr %7, align 4, !tbaa !85
  call void @llvm.lifetime.start.p0(i64 4, ptr %8) #9
  %10 = load ptr, ptr %5, align 8, !tbaa !18
  %11 = getelementptr inbounds nuw %struct.ssl_connection_st, ptr %10, i32 0, i32 0
  %12 = getelementptr inbounds nuw %struct.ssl_st, ptr %11, i32 0, i32 3
  %13 = load ptr, ptr %12, align 8, !tbaa !86
  %14 = getelementptr inbounds nuw %struct.ssl_method_st, ptr %13, i32 0, i32 28
  %15 = load ptr, ptr %14, align 8, !tbaa !87
  %16 = getelementptr inbounds nuw %struct.ssl3_enc_method, ptr %15, i32 0, i32 10
  %17 = load i32, ptr %16, align 8, !tbaa !90
  %18 = and i32 %17, 8
  store i32 %18, ptr %8, align 4, !tbaa !85
  %19 = load i32, ptr %6, align 4, !tbaa !85
  %20 = load i32, ptr %7, align 4, !tbaa !85
  %21 = icmp eq i32 %19, %20
  br i1 %21, label %22, label %23

22:                                               ; preds = %3
  store i32 0, ptr %4, align 4
  store i32 1, ptr %9, align 4
  br label %48

23:                                               ; preds = %3
  %24 = load i32, ptr %8, align 4, !tbaa !85
  %25 = icmp ne i32 %24, 0
  br i1 %25, label %31, label %26

26:                                               ; preds = %23
  %27 = load i32, ptr %6, align 4, !tbaa !85
  %28 = load i32, ptr %7, align 4, !tbaa !85
  %29 = icmp slt i32 %27, %28
  %30 = select i1 %29, i32 -1, i32 1
  store i32 %30, ptr %4, align 4
  store i32 1, ptr %9, align 4
  br label %48

31:                                               ; preds = %23
  %32 = load i32, ptr %6, align 4, !tbaa !85
  %33 = icmp eq i32 %32, 256
  br i1 %33, label %34, label %35

34:                                               ; preds = %31
  br label %37

35:                                               ; preds = %31
  %36 = load i32, ptr %6, align 4, !tbaa !85
  br label %37

37:                                               ; preds = %35, %34
  %38 = phi i32 [ 65280, %34 ], [ %36, %35 ]
  %39 = load i32, ptr %7, align 4, !tbaa !85
  %40 = icmp eq i32 %39, 256
  br i1 %40, label %41, label %42

41:                                               ; preds = %37
  br label %44

42:                                               ; preds = %37
  %43 = load i32, ptr %7, align 4, !tbaa !85
  br label %44

44:                                               ; preds = %42, %41
  %45 = phi i32 [ 65280, %41 ], [ %43, %42 ]
  %46 = icmp sgt i32 %38, %45
  %47 = select i1 %46, i32 -1, i32 1
  store i32 %47, ptr %4, align 4
  store i32 1, ptr %9, align 4
  br label %48

48:                                               ; preds = %44, %26, %22
  call void @llvm.lifetime.end.p0(i64 4, ptr %8) #9
  %49 = load i32, ptr %4, align 4
  ret i32 %49
}

; Function Attrs: nounwind uwtable
define internal i32 @ssl_method_error(ptr noundef %0, ptr noundef %1) #0 {
  %3 = alloca i32, align 4
  %4 = alloca ptr, align 8
  %5 = alloca ptr, align 8
  %6 = alloca i32, align 4
  %7 = alloca i32, align 4
  store ptr %0, ptr %4, align 8, !tbaa !18
  store ptr %1, ptr %5, align 8, !tbaa !124
  call void @llvm.lifetime.start.p0(i64 4, ptr %6) #9
  %8 = load ptr, ptr %5, align 8, !tbaa !124
  %9 = getelementptr inbounds nuw %struct.ssl_method_st, ptr %8, i32 0, i32 0
  %10 = load i32, ptr %9, align 8, !tbaa !92
  store i32 %10, ptr %6, align 4, !tbaa !85
  %11 = load ptr, ptr %4, align 8, !tbaa !18
  %12 = getelementptr inbounds nuw %struct.ssl_connection_st, ptr %11, i32 0, i32 76
  %13 = load i32, ptr %12, align 4, !tbaa !253
  %14 = icmp ne i32 %13, 0
  br i1 %14, label %15, label %23

15:                                               ; preds = %2
  %16 = load ptr, ptr %4, align 8, !tbaa !18
  %17 = load i32, ptr %6, align 4, !tbaa !85
  %18 = load ptr, ptr %4, align 8, !tbaa !18
  %19 = getelementptr inbounds nuw %struct.ssl_connection_st, ptr %18, i32 0, i32 76
  %20 = load i32, ptr %19, align 4, !tbaa !253
  %21 = call i32 @ssl_version_cmp(ptr noundef %16, i32 noundef %17, i32 noundef %20)
  %22 = icmp slt i32 %21, 0
  br i1 %22, label %28, label %23

23:                                               ; preds = %15, %2
  %24 = load ptr, ptr %4, align 8, !tbaa !18
  %25 = load i32, ptr %6, align 4, !tbaa !85
  %26 = call i32 @ssl_security(ptr noundef %24, i32 noundef 9, i32 noundef 0, i32 noundef %25, ptr noundef null)
  %27 = icmp eq i32 %26, 0
  br i1 %27, label %28, label %29

28:                                               ; preds = %23, %15
  store i32 396, ptr %3, align 4
  store i32 1, ptr %7, align 4
  br label %69

29:                                               ; preds = %23
  %30 = load ptr, ptr %4, align 8, !tbaa !18
  %31 = getelementptr inbounds nuw %struct.ssl_connection_st, ptr %30, i32 0, i32 77
  %32 = load i32, ptr %31, align 8, !tbaa !254
  %33 = icmp ne i32 %32, 0
  br i1 %33, label %34, label %43

34:                                               ; preds = %29
  %35 = load ptr, ptr %4, align 8, !tbaa !18
  %36 = load i32, ptr %6, align 4, !tbaa !85
  %37 = load ptr, ptr %4, align 8, !tbaa !18
  %38 = getelementptr inbounds nuw %struct.ssl_connection_st, ptr %37, i32 0, i32 77
  %39 = load i32, ptr %38, align 8, !tbaa !254
  %40 = call i32 @ssl_version_cmp(ptr noundef %35, i32 noundef %36, i32 noundef %39)
  %41 = icmp sgt i32 %40, 0
  br i1 %41, label %42, label %43

42:                                               ; preds = %34
  store i32 166, ptr %3, align 4
  store i32 1, ptr %7, align 4
  br label %69

43:                                               ; preds = %34, %29
  %44 = load ptr, ptr %4, align 8, !tbaa !18
  %45 = getelementptr inbounds nuw %struct.ssl_connection_st, ptr %44, i32 0, i32 74
  %46 = load i64, ptr %45, align 8, !tbaa !171
  %47 = load ptr, ptr %5, align 8, !tbaa !124
  %48 = getelementptr inbounds nuw %struct.ssl_method_st, ptr %47, i32 0, i32 2
  %49 = load i64, ptr %48, align 8, !tbaa !255
  %50 = and i64 %46, %49
  %51 = icmp ne i64 %50, 0
  br i1 %51, label %52, label %53

52:                                               ; preds = %43
  store i32 258, ptr %3, align 4
  store i32 1, ptr %7, align 4
  br label %69

53:                                               ; preds = %43
  %54 = load ptr, ptr %5, align 8, !tbaa !124
  %55 = getelementptr inbounds nuw %struct.ssl_method_st, ptr %54, i32 0, i32 1
  %56 = load i32, ptr %55, align 4, !tbaa !256
  %57 = and i32 %56, 2
  %58 = icmp ne i32 %57, 0
  br i1 %58, label %59, label %68

59:                                               ; preds = %53
  %60 = load ptr, ptr %4, align 8, !tbaa !18
  %61 = getelementptr inbounds nuw %struct.ssl_connection_st, ptr %60, i32 0, i32 48
  %62 = load ptr, ptr %61, align 8, !tbaa !215
  %63 = getelementptr inbounds nuw %struct.cert_st, ptr %62, i32 0, i32 4
  %64 = load i32, ptr %63, align 4, !tbaa !257
  %65 = and i32 %64, 196608
  %66 = icmp ne i32 %65, 0
  br i1 %66, label %67, label %68

67:                                               ; preds = %59
  store i32 158, ptr %3, align 4
  store i32 1, ptr %7, align 4
  br label %69

68:                                               ; preds = %59, %53
  store i32 0, ptr %3, align 4
  store i32 1, ptr %7, align 4
  br label %69

69:                                               ; preds = %68, %67, %52, %42, %28
  call void @llvm.lifetime.end.p0(i64 4, ptr %6) #9
  %70 = load i32, ptr %3, align 4
  ret i32 %70
}