; Function Attrs: nounwind uwtable
define internal fastcc range(i32 0, 397) i32 @ssl_method_error(ptr noundef %0, ptr noundef readonly captures(none) %1) unnamed_addr #0 {
  %3 = load i32, ptr %1, align 8, !tbaa !87
  %4 = getelementptr inbounds nuw i8, ptr %0, i64 2492
  %5 = load i32, ptr %4, align 4, !tbaa !224
  %.not = icmp eq i32 %5, 0
  %6 = icmp eq i32 %3, %5
  %or.cond = select i1 %.not, i1 true, i1 %6
  br i1 %or.cond, label %ssl_version_cmp.exit.thread, label %7

7:                                                ; preds = %2
  %8 = getelementptr inbounds nuw i8, ptr %0, i64 24
  %9 = load ptr, ptr %8, align 8, !tbaa !81
  %10 = getelementptr inbounds nuw i8, ptr %9, i64 216
  %11 = load ptr, ptr %10, align 8, !tbaa !82
  %12 = getelementptr inbounds nuw i8, ptr %11, i64 80
  %13 = load i32, ptr %12, align 8, !tbaa !85
  %14 = and i32 %13, 8
  %.not.i = icmp eq i32 %14, 0
  br i1 %.not.i, label %15, label %17

15:                                               ; preds = %7
  %16 = icmp slt i32 %3, %5
  br i1 %16, label %ssl_version_cmp.exit, label %ssl_version_cmp.exit.thread

17:                                               ; preds = %7
  %18 = icmp eq i32 %3, 256
  %19 = select i1 %18, i32 65280, i32 %3
  %20 = icmp eq i32 %5, 256
  %21 = select i1 %20, i32 65280, i32 %5
  %22 = icmp sgt i32 %19, %21
  br i1 %22, label %ssl_version_cmp.exit, label %ssl_version_cmp.exit.thread

ssl_version_cmp.exit.thread:                      ; preds = %15, %17, %2
  %23 = tail call i32 @ssl_security(ptr noundef nonnull %0, i32 noundef 9, i32 noundef 0, i32 noundef %3, ptr noundef null) #11
  %24 = icmp eq i32 %23, 0
  br i1 %24, label %ssl_version_cmp.exit, label %25

25:                                               ; preds = %ssl_version_cmp.exit.thread
  %26 = getelementptr inbounds nuw i8, ptr %0, i64 2496
  %27 = load i32, ptr %26, align 8, !tbaa !225
  %.not17 = icmp eq i32 %27, 0
  %28 = icmp eq i32 %3, %27
  %or.cond29 = select i1 %.not17, i1 true, i1 %28
  br i1 %or.cond29, label %ssl_version_cmp.exit23.thread, label %29

29:                                               ; preds = %25
  %30 = getelementptr inbounds nuw i8, ptr %0, i64 24
  %31 = load ptr, ptr %30, align 8, !tbaa !81
  %32 = getelementptr inbounds nuw i8, ptr %31, i64 216
  %33 = load ptr, ptr %32, align 8, !tbaa !82
  %34 = getelementptr inbounds nuw i8, ptr %33, i64 80
  %35 = load i32, ptr %34, align 8, !tbaa !85
  %36 = and i32 %35, 8
  %.not.i21 = icmp eq i32 %36, 0
  br i1 %.not.i21, label %37, label %39

37:                                               ; preds = %29
  %38 = icmp slt i32 %3, %27
  br i1 %38, label %ssl_version_cmp.exit23.thread, label %ssl_version_cmp.exit

39:                                               ; preds = %29
  %40 = icmp eq i32 %3, 256
  %41 = select i1 %40, i32 65280, i32 %3
  %42 = icmp eq i32 %27, 256
  %43 = select i1 %42, i32 65280, i32 %27
  %44 = icmp sgt i32 %41, %43
  br i1 %44, label %ssl_version_cmp.exit23.thread, label %ssl_version_cmp.exit

ssl_version_cmp.exit23.thread:                    ; preds = %37, %39, %25
  %45 = getelementptr inbounds nuw i8, ptr %0, i64 2480
  %46 = load i64, ptr %45, align 8, !tbaa !153
  %47 = getelementptr inbounds nuw i8, ptr %1, i64 8
  %48 = load i64, ptr %47, align 8, !tbaa !226
  %49 = and i64 %48, %46
  %.not18 = icmp eq i64 %49, 0
  br i1 %.not18, label %50, label %ssl_version_cmp.exit

50:                                               ; preds = %ssl_version_cmp.exit23.thread
  %51 = getelementptr inbounds nuw i8, ptr %1, i64 4
  %52 = load i32, ptr %51, align 4, !tbaa !227
  %53 = and i32 %52, 2
  %.not19 = icmp eq i32 %53, 0
  br i1 %.not19, label %60, label %54

54:                                               ; preds = %50
  %55 = getelementptr inbounds nuw i8, ptr %0, i64 2176
  %56 = load ptr, ptr %55, align 8, !tbaa !184
  %57 = getelementptr inbounds nuw i8, ptr %56, i64 28
  %58 = load i32, ptr %57, align 4, !tbaa !228
  %59 = and i32 %58, 196608
  %.not20 = icmp eq i32 %59, 0
  br i1 %.not20, label %60, label %ssl_version_cmp.exit

60:                                               ; preds = %54, %50
  br label %ssl_version_cmp.exit

ssl_version_cmp.exit:                             ; preds = %15, %17, %39, %37, %54, %ssl_version_cmp.exit23.thread, %ssl_version_cmp.exit.thread, %60
  %.0 = phi i32 [ 0, %60 ], [ 396, %ssl_version_cmp.exit.thread ], [ 258, %ssl_version_cmp.exit23.thread ], [ 158, %54 ], [ 166, %37 ], [ 166, %39 ], [ 396, %17 ], [ 396, %15 ]
  ret i32 %.0
}